; Function Attrs: mustprogress nounwind uwtable
define void @_ZN9grpc_core16BasicMemoryQuota4StopEv(ptr nocapture noundef nonnull align 8 dereferenceable(1488) %this) local_unnamed_addr #3 align 2 personality ptr @__gxx_personality_v0 {
entry:
  %reclaimer_activity_ = getelementptr inbounds i8, ptr %this, i64 1360
  %0 = load ptr, ptr %reclaimer_activity_, align 8
  store ptr null, ptr %reclaimer_activity_, align 8
  %tobool.not.i.i = icmp eq ptr %0, null
  br i1 %tobool.not.i.i, label %_ZNSt10unique_ptrIN9grpc_core8ActivityENS0_16OrphanableDeleteEE5resetEPS1_.exit, label %if.then.i.i

if.then.i.i:                                      ; preds = %entry
  %vtable.i.i.i = load ptr, ptr %0, align 8
  %1 = load ptr, ptr %vtable.i.i.i, align 8
  invoke void %1(ptr noundef nonnull align 8 dereferenceable(8) %0)
          to label %_ZNSt10unique_ptrIN9grpc_core8ActivityENS0_16OrphanableDeleteEE5resetEPS1_.exit unwind label %terminate.lpad.i.i

terminate.lpad.i.i:                               ; preds = %if.then.i.i
  %2 = landingpad { ptr, i32 }
          catch ptr null
  %3 = extractvalue { ptr, i32 } %2, 0
  tail call void @__clang_call_terminate(ptr %3) #26
  unreachable

_ZNSt10unique_ptrIN9grpc_core8ActivityENS0_16OrphanableDeleteEE5resetEPS1_.exit: ; preds = %entry, %if.then.i.i
  ret void
}